target datalayout = "e-m:e-p270:32:32-p271:32:32-p272:64:64-i64:64-i128:128-f80:128-n8:16:32:64-S128"
target triple = "x86_64-pc-linux-gnu"

%"class.llvm::SMLoc" = type { ptr }
%"class.std::__cxx11::basic_string" = type { %"struct.std::__cxx11::basic_string<char>::_Alloc_hider", i64, %union.anon }
%"struct.std::__cxx11::basic_string<char>::_Alloc_hider" = type { ptr }
%union.anon = type { i64, [8 x i8] }
%"class.llvm::LLLexer" = type <{ ptr, %"class.llvm::StringRef", ptr, ptr, ptr, ptr, i32, [4 x i8], %"class.std::__cxx11::basic_string", i32, [4 x i8], ptr, %"class.llvm::APFloat", %"class.llvm::APSInt", i8, [7 x i8] }>
%"class.llvm::StringRef" = type { ptr, i64 }
%"class.llvm::APFloat" = type { [8 x i8], %"union.llvm::APFloat::Storage" }
%"union.llvm::APFloat::Storage" = type { %"class.llvm::detail::DoubleAPFloat", [8 x i8] }
%"class.llvm::detail::DoubleAPFloat" = type { ptr, %"class.std::unique_ptr" }
%"class.std::unique_ptr" = type { %"struct.std::__uniq_ptr_data" }
%"struct.std::__uniq_ptr_data" = type { %"class.std::__uniq_ptr_impl" }
%"class.std::__uniq_ptr_impl" = type { %"class.std::tuple" }
%"class.std::tuple" = type { %"struct.std::_Tuple_impl" }
%"struct.std::_Tuple_impl" = type { %"struct.std::_Head_base.4" }
%"struct.std::_Head_base.4" = type { ptr }
%"class.llvm::APSInt" = type { %"class.llvm::APInt.base", i8, [3 x i8] }
%"class.llvm::APInt.base" = type <{ %union.anon.5, i32 }>
%union.anon.5 = type { i64 }
%"class.llvm::Twine" = type <{ %"union.llvm::Twine::Child", %"union.llvm::Twine::Child", i8, i8, [6 x i8] }>
%"union.llvm::Twine::Child" = type { %struct.anon }
%struct.anon = type { ptr, i64 }

@.str.1 = private unnamed_addr constant [40 x i8] c"constant bigger than 128 bits detected!\00", align 1

; Function Attrs: mustprogress nounwind uwtable
define linkonce_odr hidden void @_ZN4llvm5SMLocC2Ev(ptr noundef nonnull align 8 dereferenceable(8) %0) unnamed_addr #0 comdat align 2 {
  %2 = alloca ptr, align 8
  store ptr %0, ptr %2, align 8
  %3 = load ptr, ptr %2, align 8
  %4 = getelementptr inbounds nuw %"class.llvm::SMLoc", ptr %3, i32 0, i32 0
  store ptr null, ptr %4, align 8
  ret void
}

; Function Attrs: mustprogress nounwind uwtable
define linkonce_odr hidden ptr @_ZN4llvm5SMLoc14getFromPointerEPKc(ptr noundef %0) #0 comdat align 2 {
  %2 = alloca %"class.llvm::SMLoc", align 8
  %3 = alloca ptr, align 8
  store ptr %0, ptr %3, align 8
  call void @_ZN4llvm5SMLocC2Ev(ptr noundef nonnull align 8 dereferenceable(8) %2) #9
  %4 = load ptr, ptr %3, align 8
  %5 = getelementptr inbounds nuw %"class.llvm::SMLoc", ptr %2, i32 0, i32 0
  store ptr %4, ptr %5, align 8
  %6 = getelementptr inbounds nuw %"class.llvm::SMLoc", ptr %2, i32 0, i32 0
  %7 = load ptr, ptr %6, align 8
  ret ptr %7
}

; Function Attrs: mustprogress nounwind uwtable
define linkonce_odr hidden ptr @_ZNK4llvm7LLLexer6getLocEv(ptr noundef nonnull align 8 dereferenceable(161) %0) #0 comdat align 2 {
  %2 = alloca %"class.llvm::SMLoc", align 8
  %3 = alloca ptr, align 8
  store ptr %0, ptr %3, align 8
  %4 = load ptr, ptr %3, align 8
  %5 = getelementptr inbounds nuw %"class.llvm::LLLexer", ptr %4, i32 0, i32 5
  %6 = load ptr, ptr %5, align 8
  %7 = call ptr @_ZN4llvm5SMLoc14getFromPointerEPKc(ptr noundef %6)
  %8 = getelementptr inbounds nuw %"class.llvm::SMLoc", ptr %2, i32 0, i32 0
  store ptr %7, ptr %8, align 8
  %9 = getelementptr inbounds nuw %"class.llvm::SMLoc", ptr %2, i32 0, i32 0
  %10 = load ptr, ptr %9, align 8
  ret ptr %10
}

; Function Attrs: mustprogress nounwind uwtable
define linkonce_odr hidden noundef zeroext i1 @_ZNK4llvm7LLLexer5ErrorERKNS_5TwineE(ptr noundef nonnull align 8 dereferenceable(161) %0, ptr noundef nonnull align 8 dereferenceable(34) %1) #0 comdat align 2 {
  %3 = alloca ptr, align 8
  %4 = alloca ptr, align 8
  %5 = alloca %"class.llvm::SMLoc", align 8
  store ptr %0, ptr %3, align 8
  store ptr %1, ptr %4, align 8
  %6 = load ptr, ptr %3, align 8
  %7 = call ptr @_ZNK4llvm7LLLexer6getLocEv(ptr noundef nonnull align 8 dereferenceable(161) %6)
  %8 = getelementptr inbounds nuw %"class.llvm::SMLoc", ptr %5, i32 0, i32 0
  store ptr %7, ptr %8, align 8
  %9 = load ptr, ptr %4, align 8
  %10 = getelementptr inbounds nuw %"class.llvm::SMLoc", ptr %5, i32 0, i32 0
  %11 = load ptr, ptr %10, align 8
  %12 = call noundef zeroext i1 @_ZNK4llvm7LLLexer5ErrorENS_5SMLocERKNS_5TwineE(ptr noundef nonnull align 8 dereferenceable(161) %6, ptr %11, ptr noundef nonnull align 8 dereferenceable(34) %9)
  ret i1 %12
}

; Function Attrs: mustprogress nounwind uwtable
define linkonce_odr hidden void @_ZN4llvm5TwineC2EPKc(ptr noundef nonnull align 8 dereferenceable(34) %0, ptr noundef %1) unnamed_addr #0 comdat align 2 {
  %3 = alloca ptr, align 8
  %4 = alloca ptr, align 8
  store ptr %0, ptr %3, align 8
  store ptr %1, ptr %4, align 8
  %5 = load ptr, ptr %3, align 8
  %6 = getelementptr inbounds nuw %"class.llvm::Twine", ptr %5, i32 0, i32 2
  store i8 1, ptr %6, align 8
  %7 = getelementptr inbounds nuw %"class.llvm::Twine", ptr %5, i32 0, i32 3
  store i8 1, ptr %7, align 1
  %8 = load ptr, ptr %4, align 8
  %9 = getelementptr inbounds i8, ptr %8, i64 0
  %10 = load i8, ptr %9, align 1
  %11 = sext i8 %10 to i32
  %12 = icmp ne i32 %11, 0
  br i1 %12, label %13, label %17

13:                                               ; preds = %2
  %14 = load ptr, ptr %4, align 8
  %15 = getelementptr inbounds nuw %"class.llvm::Twine", ptr %5, i32 0, i32 0
  store ptr %14, ptr %15, align 8
  %16 = getelementptr inbounds nuw %"class.llvm::Twine", ptr %5, i32 0, i32 2
  store i8 3, ptr %16, align 8
  br label %19

17:                                               ; preds = %2
  %18 = getelementptr inbounds nuw %"class.llvm::Twine", ptr %5, i32 0, i32 2
  store i8 1, ptr %18, align 8
  br label %19

19:                                               ; preds = %17, %13
  ret void
}

; Function Attrs: mustprogress nounwind uwtable
define linkonce_odr hidden noundef i32 @_ZN4llvm13hexDigitValueEc(i8 noundef signext %0) #0 comdat {
  %2 = alloca i8, align 1
  store i8 %0, ptr %2, align 1
  %3 = load i8, ptr %2, align 1
  %4 = zext i8 %3 to i64
  %5 = getelementptr inbounds [256 x i16], ptr @_ZZN4llvm13hexDigitValueEcE3LUT, i64 0, i64 %4
  %6 = load i16, ptr %5, align 2
  %7 = sext i16 %6 to i32
  ret i32 %7
}

; Function Attrs: mustprogress nounwind uwtable
define dso_local void @_ZN4llvm7LLLexer16FP80HexToIntPairEPKcS2_Pm(ptr noundef nonnull align 8 dereferenceable(161) %0, ptr noundef %1, ptr noundef %2, ptr noundef %3) #0 align 2 {
  %5 = alloca ptr, align 8
  %6 = alloca ptr, align 8
  %7 = alloca ptr, align 8
  %8 = alloca ptr, align 8
  %9 = alloca i32, align 4
  %10 = alloca i32, align 4
  %11 = alloca %"class.llvm::Twine", align 8
  store ptr %0, ptr %5, align 8
  store ptr %1, ptr %6, align 8
  store ptr %2, ptr %7, align 8
  store ptr %3, ptr %8, align 8
  %12 = load ptr, ptr %5, align 8
  %13 = load ptr, ptr %8, align 8
  %14 = getelementptr inbounds i64, ptr %13, i64 1
  store i64 0, ptr %14, align 8
  store i32 0, ptr %9, align 4
  br label %15

15:                                               ; preds = %37, %4
  %16 = load i32, ptr %9, align 4
  %17 = icmp slt i32 %16, 4
  br i1 %17, label %18, label %22

18:                                               ; preds = %15
  %19 = load ptr, ptr %6, align 8
  %20 = load ptr, ptr %7, align 8
  %21 = icmp ne ptr %19, %20
  br label %22

22:                                               ; preds = %18, %15
  %23 = phi i1 [ false, %15 ], [ %21, %18 ]
  br i1 %23, label %24, label %42

24:                                               ; preds = %22
  %25 = load ptr, ptr %8, align 8
  %26 = getelementptr inbounds i64, ptr %25, i64 1
  %27 = load i64, ptr %26, align 8
  %28 = mul i64 %27, 16
  store i64 %28, ptr %26, align 8
  %29 = load ptr, ptr %6, align 8
  %30 = load i8, ptr %29, align 1
  %31 = call noundef i32 @_ZN4llvm13hexDigitValueEc(i8 noundef signext %30)
  %32 = zext i32 %31 to i64
  %33 = load ptr, ptr %8, align 8
  %34 = getelementptr inbounds i64, ptr %33, i64 1
  %35 = load i64, ptr %34, align 8
  %36 = add i64 %35, %32
  store i64 %36, ptr %34, align 8
  br label %37

37:                                               ; preds = %24
  %38 = load i32, ptr %9, align 4
  %39 = add nsw i32 %38, 1
  store i32 %39, ptr %9, align 4
  %40 = load ptr, ptr %6, align 8
  %41 = getelementptr inbounds i8, ptr %40, i32 1
  store ptr %41, ptr %6, align 8
  br label %15, !llvm.loop !9

42:                                               ; preds = %22
  %43 = load ptr, ptr %8, align 8
  %44 = getelementptr inbounds i64, ptr %43, i64 0
  store i64 0, ptr %44, align 8
  store i32 0, ptr %10, align 4
  br label %45

45:                                               ; preds = %67, %42
  %46 = load i32, ptr %10, align 4
  %47 = icmp slt i32 %46, 16
  br i1 %47, label %48, label %52

48:                                               ; preds = %45
  %49 = load ptr, ptr %6, align 8
  %50 = load ptr, ptr %7, align 8
  %51 = icmp ne ptr %49, %50
  br label %52

52:                                               ; preds = %48, %45
  %53 = phi i1 [ false, %45 ], [ %51, %48 ]
  br i1 %53, label %54, label %72

54:                                               ; preds = %52
  %55 = load ptr, ptr %8, align 8
  %56 = getelementptr inbounds i64, ptr %55, i64 0
  %57 = load i64, ptr %56, align 8
  %58 = mul i64 %57, 16
  store i64 %58, ptr %56, align 8
  %59 = load ptr, ptr %6, align 8
  %60 = load i8, ptr %59, align 1
  %61 = call noundef i32 @_ZN4llvm13hexDigitValueEc(i8 noundef signext %60)
  %62 = zext i32 %61 to i64
  %63 = load ptr, ptr %8, align 8
  %64 = getelementptr inbounds i64, ptr %63, i64 0
  %65 = load i64, ptr %64, align 8
  %66 = add i64 %65, %62
  store i64 %66, ptr %64, align 8
  br label %67

67:                                               ; preds = %54
  %68 = load i32, ptr %10, align 4
  %69 = add nsw i32 %68, 1
  store i32 %69, ptr %10, align 4
  %70 = load ptr, ptr %6, align 8
  %71 = getelementptr inbounds i8, ptr %70, i32 1
  store ptr %71, ptr %6, align 8
  br label %45, !llvm.loop !10

72:                                               ; preds = %52
  %73 = load ptr, ptr %6, align 8
  %74 = load ptr, ptr %7, align 8
  %75 = icmp ne ptr %73, %74
  br i1 %75, label %76, label %78

76:                                               ; preds = %72
  call void @_ZN4llvm5TwineC2EPKc(ptr noundef nonnull align 8 dereferenceable(34) %11, ptr noundef @.str.1)
  %77 = call noundef zeroext i1 @_ZNK4llvm7LLLexer5ErrorERKNS_5TwineE(ptr noundef nonnull align 8 dereferenceable(161) %12, ptr noundef nonnull align 8 dereferenceable(34) %11)
  br label %78

78:                                               ; preds = %76, %72
  ret void
}