; Function Attrs: mustprogress nounwind uwtable
define dso_local void @_ZN4llvm7LLLexer16FP80HexToIntPairEPKcS2_Pm(ptr nocapture noundef nonnull readonly align 8 dereferenceable(161) %0, ptr noundef readonly %1, ptr noundef readnone %2, ptr nocapture noundef writeonly %3) local_unnamed_addr #0 align 2 {
  %5 = alloca %"class.llvm::Twine", align 8
  %6 = getelementptr inbounds i8, ptr %3, i64 8
  store i64 0, ptr %6, align 8
  %.not = icmp eq ptr %1, %2
  br i1 %.not, label %._crit_edge, label %.lr.ph

.lr.ph:                                           ; preds = %4, %.lr.ph
  %7 = phi i64 [ %15, %.lr.ph ], [ 0, %4 ]
  %.02023 = phi i32 [ %16, %.lr.ph ], [ 0, %4 ]
  %.02122 = phi ptr [ %17, %.lr.ph ], [ %1, %4 ]
  %8 = shl i64 %7, 4
  store i64 %8, ptr %6, align 8
  %9 = load i8, ptr %.02122, align 1
  %10 = zext i8 %9 to i64
  %11 = getelementptr inbounds [256 x i16], ptr @_ZZN4llvm13hexDigitValueEcE3LUT, i64 0, i64 %10
  %12 = load i16, ptr %11, align 2
  %13 = sext i16 %12 to i64
  %14 = and i64 %13, 4294967295
  %15 = add i64 %14, %8
  store i64 %15, ptr %6, align 8
  %16 = add nuw nsw i32 %.02023, 1
  %17 = getelementptr inbounds i8, ptr %.02122, i64 1
  %18 = icmp ult i32 %.02023, 3
  %19 = icmp ne ptr %17, %2
  %20 = select i1 %18, i1 %19, i1 false
  br i1 %20, label %.lr.ph, label %._crit_edge, !llvm.loop !10

._crit_edge:                                      ; preds = %.lr.ph, %4
  %.021.lcssa = phi ptr [ %1, %4 ], [ %17, %.lr.ph ]
  store i64 0, ptr %3, align 8
  %.not31 = icmp eq ptr %.021.lcssa, %2
  br i1 %.not31, label %._crit_edge28.thread, label %.lr.ph27

.lr.ph27:                                         ; preds = %._crit_edge, %.lr.ph27
  %21 = phi i64 [ %29, %.lr.ph27 ], [ 0, %._crit_edge ]
  %.025 = phi i32 [ %30, %.lr.ph27 ], [ 0, %._crit_edge ]
  %.124 = phi ptr [ %31, %.lr.ph27 ], [ %.021.lcssa, %._crit_edge ]
  %22 = shl i64 %21, 4
  store i64 %22, ptr %3, align 8
  %23 = load i8, ptr %.124, align 1
  %24 = zext i8 %23 to i64
  %25 = getelementptr inbounds [256 x i16], ptr @_ZZN4llvm13hexDigitValueEcE3LUT, i64 0, i64 %24
  %26 = load i16, ptr %25, align 2
  %27 = sext i16 %26 to i64
  %28 = and i64 %27, 4294967295
  %29 = add i64 %28, %22
  store i64 %29, ptr %3, align 8
  %30 = add nuw nsw i32 %.025, 1
  %31 = getelementptr inbounds i8, ptr %.124, i64 1
  %32 = icmp ult i32 %.025, 15
  %33 = icmp ne ptr %31, %2
  %34 = select i1 %32, i1 %33, i1 false
  br i1 %34, label %.lr.ph27, label %._crit_edge28, !llvm.loop !11

._crit_edge28:                                    ; preds = %.lr.ph27
  br i1 %33, label %35, label %._crit_edge28.thread

35:                                               ; preds = %._crit_edge28
  %36 = getelementptr inbounds nuw i8, ptr %5, i64 32
  %37 = getelementptr inbounds nuw i8, ptr %5, i64 33
  store i8 1, ptr %37, align 1
  store ptr @.str.1, ptr %5, align 8
  store i8 3, ptr %36, align 8
  %38 = getelementptr inbounds nuw i8, ptr %0, i64 48
  %39 = load ptr, ptr %38, align 8
  %40 = call noundef zeroext i1 @_ZNK4llvm7LLLexer5ErrorENS_5SMLocERKNS_5TwineE(ptr noundef nonnull align 8 dereferenceable(161) %0, ptr %39, ptr noundef nonnull align 8 dereferenceable(34) %5)
  br label %._crit_edge28.thread

._crit_edge28.thread:                             ; preds = %._crit_edge, %35, %._crit_edge28
  ret void
}